target datalayout = "e-m:e-p270:32:32-p271:32:32-p272:64:64-i64:64-i128:128-f80:128-n8:16:32:64-S128"
target triple = "x86_64-pc-linux-gnu"

%struct.H5O_efl_t = type { i64, i64, i64, ptr }
%struct.H5O_efl_entry_t = type { i64, ptr, i64, i64 }

@H5O_init_g = external global i8, align 1
@H5_libterm_g = external global i8, align 1
@.str.1 = private unnamed_addr constant [100 x i8] c"generated/home/dtcxzyw/WorkSpace/Projects/compilers/llvm-opt-benchmark/bench/hdf5/hdf5/src/H5Oefl.c\00", align 1
@__func__.H5O_efl_total_size = private unnamed_addr constant [19 x i8] c"H5O_efl_total_size\00", align 1
@H5E_FUNC_g = external global i64, align 8
@H5E_CANTINIT_g = external global i64, align 8
@.str.2 = private unnamed_addr constant [32 x i8] c"interface initialization failed\00", align 1
@H5E_EFL_g = external global i64, align 8
@H5E_OVERFLOW_g = external global i64, align 8
@.str.3 = private unnamed_addr constant [39 x i8] c"total external storage size overflowed\00", align 1

; Function Attrs: nounwind uwtable
define i32 @H5O_efl_total_size(ptr noundef %0, ptr noundef %1) #0 {
  %3 = alloca i32, align 4
  %4 = alloca ptr, align 8
  %5 = alloca ptr, align 8
  %6 = alloca i64, align 8
  %7 = alloca i64, align 8
  %8 = alloca i32, align 4
  %9 = alloca i8, align 1
  %10 = alloca i64, align 8
  %11 = alloca i32, align 4
  store ptr %0, ptr %4, align 8, !tbaa !18
  store ptr %1, ptr %5, align 8, !tbaa !67
  call void @llvm.lifetime.start.p0(i64 8, ptr %6) #8
  store i64 0, ptr %6, align 8, !tbaa !14
  call void @llvm.lifetime.start.p0(i64 8, ptr %7) #8
  call void @llvm.lifetime.start.p0(i64 4, ptr %8) #8
  store i32 0, ptr %8, align 4, !tbaa !10
  call void @llvm.lifetime.start.p0(i64 1, ptr %9) #8
  store i8 0, ptr %9, align 1, !tbaa !23
  %12 = load i8, ptr @H5O_init_g, align 1, !tbaa !23, !range !25, !noundef !26
  %13 = trunc i8 %12 to i1
  br i1 %13, label %18, label %14

14:                                               ; preds = %2
  %15 = load i8, ptr @H5_libterm_g, align 1, !tbaa !23, !range !25, !noundef !26
  %16 = trunc i8 %15 to i1
  %17 = xor i1 %16, true
  br label %18

18:                                               ; preds = %14, %2
  %19 = phi i1 [ false, %2 ], [ %17, %14 ]
  %20 = xor i1 %19, true
  %21 = xor i1 %20, true
  %22 = zext i1 %21 to i32
  %23 = sext i32 %22 to i64
  %24 = call i64 @llvm.expect.i64(i64 %23, i64 0)
  %25 = icmp ne i64 %24, 0
  br i1 %25, label %26, label %49

26:                                               ; preds = %18
  store i8 1, ptr @H5O_init_g, align 1, !tbaa !23
  %27 = call i32 @H5O__init_package()
  %28 = icmp slt i32 %27, 0
  br i1 %28, label %29, label %48

29:                                               ; preds = %26
  store i8 0, ptr @H5O_init_g, align 1, !tbaa !23
  br label %30

30:                                               ; preds = %29
  br label %31

31:                                               ; preds = %30
  br label %32

32:                                               ; preds = %31
  %33 = load i64, ptr @H5E_FUNC_g, align 8, !tbaa !14
  %34 = load i64, ptr @H5E_CANTINIT_g, align 8, !tbaa !14
  %35 = call i32 (ptr, ptr, i32, i64, i64, ptr, ...) @H5E_printf_stack(ptr noundef @.str.1, ptr noundef @__func__.H5O_efl_total_size, i32 noundef 406, i64 noundef %33, i64 noundef %34, ptr noundef @.str.2)
  br label %36

36:                                               ; preds = %32
  br label %37

37:                                               ; preds = %36
  store i8 1, ptr %9, align 1, !tbaa !23
  %38 = load i8, ptr %9, align 1, !tbaa !23, !range !25, !noundef !26
  %39 = trunc i8 %38 to i1
  %40 = zext i1 %39 to i8
  store i8 %40, ptr %9, align 1, !tbaa !23
  br label %41

41:                                               ; preds = %37
  br label %42

42:                                               ; preds = %41
  br label %43

43:                                               ; preds = %42
  store i32 -1, ptr %8, align 4, !tbaa !10
  br label %134

44:                                               ; No predecessors!
  br label %45

45:                                               ; preds = %44
  br label %46

46:                                               ; preds = %45
  br label %47

47:                                               ; preds = %46
  br label %48

48:                                               ; preds = %47, %26
  br label %49

49:                                               ; preds = %48, %18
  %50 = load i8, ptr @H5O_init_g, align 1, !tbaa !23, !range !25, !noundef !26
  %51 = trunc i8 %50 to i1
  br i1 %51, label %56, label %52

52:                                               ; preds = %49
  %53 = load i8, ptr @H5_libterm_g, align 1, !tbaa !23, !range !25, !noundef !26
  %54 = trunc i8 %53 to i1
  %55 = xor i1 %54, true
  br label %56

56:                                               ; preds = %52, %49
  %57 = phi i1 [ true, %49 ], [ %55, %52 ]
  %58 = xor i1 %57, true
  %59 = xor i1 %58, true
  %60 = zext i1 %59 to i32
  %61 = sext i32 %60 to i64
  %62 = call i64 @llvm.expect.i64(i64 %61, i64 1)
  %63 = icmp ne i64 %62, 0
  br i1 %63, label %64, label %135

64:                                               ; preds = %56
  %65 = load ptr, ptr %4, align 8, !tbaa !18
  %66 = getelementptr inbounds nuw %struct.H5O_efl_t, ptr %65, i32 0, i32 2
  %67 = load i64, ptr %66, align 8, !tbaa !31
  %68 = icmp ugt i64 %67, 0
  br i1 %68, label %69, label %83

69:                                               ; preds = %64
  %70 = load ptr, ptr %4, align 8, !tbaa !18
  %71 = getelementptr inbounds nuw %struct.H5O_efl_t, ptr %70, i32 0, i32 3
  %72 = load ptr, ptr %71, align 8, !tbaa !33
  %73 = load ptr, ptr %4, align 8, !tbaa !18
  %74 = getelementptr inbounds nuw %struct.H5O_efl_t, ptr %73, i32 0, i32 2
  %75 = load i64, ptr %74, align 8, !tbaa !31
  %76 = sub i64 %75, 1
  %77 = getelementptr inbounds nuw %struct.H5O_efl_entry_t, ptr %72, i64 %76
  %78 = getelementptr inbounds nuw %struct.H5O_efl_entry_t, ptr %77, i32 0, i32 3
  %79 = load i64, ptr %78, align 8, !tbaa !41
  %80 = icmp eq i64 -1, %79
  br i1 %80, label %81, label %83

81:                                               ; preds = %69
  %82 = load ptr, ptr %5, align 8, !tbaa !67
  store i64 -1, ptr %82, align 8, !tbaa !14
  br label %133

83:                                               ; preds = %69, %64
  call void @llvm.lifetime.start.p0(i64 8, ptr %10) #8
  store i64 0, ptr %10, align 8, !tbaa !14
  br label %84

84:                                               ; preds = %123, %83
  %85 = load i64, ptr %10, align 8, !tbaa !14
  %86 = load ptr, ptr %4, align 8, !tbaa !18
  %87 = getelementptr inbounds nuw %struct.H5O_efl_t, ptr %86, i32 0, i32 2
  %88 = load i64, ptr %87, align 8, !tbaa !31
  %89 = icmp ult i64 %85, %88
  br i1 %89, label %90, label %127

90:                                               ; preds = %84
  %91 = load i64, ptr %6, align 8, !tbaa !14
  %92 = load ptr, ptr %4, align 8, !tbaa !18
  %93 = getelementptr inbounds nuw %struct.H5O_efl_t, ptr %92, i32 0, i32 3
  %94 = load ptr, ptr %93, align 8, !tbaa !33
  %95 = load i64, ptr %10, align 8, !tbaa !14
  %96 = getelementptr inbounds nuw %struct.H5O_efl_entry_t, ptr %94, i64 %95
  %97 = getelementptr inbounds nuw %struct.H5O_efl_entry_t, ptr %96, i32 0, i32 3
  %98 = load i64, ptr %97, align 8, !tbaa !41
  %99 = add i64 %91, %98
  store i64 %99, ptr %7, align 8, !tbaa !14
  %100 = load i64, ptr %7, align 8, !tbaa !14
  %101 = load i64, ptr %6, align 8, !tbaa !14
  %102 = icmp ult i64 %100, %101
  br i1 %102, label %103, label %122

103:                                              ; preds = %90
  br label %104

104:                                              ; preds = %103
  br label %105

105:                                              ; preds = %104
  br label %106

106:                                              ; preds = %105
  %107 = load i64, ptr @H5E_EFL_g, align 8, !tbaa !14
  %108 = load i64, ptr @H5E_OVERFLOW_g, align 8, !tbaa !14
  %109 = call i32 (ptr, ptr, i32, i64, i64, ptr, ...) @H5E_printf_stack(ptr noundef @.str.1, ptr noundef @__func__.H5O_efl_total_size, i32 noundef 416, i64 noundef %107, i64 noundef %108, ptr noundef @.str.3)
  br label %110

110:                                              ; preds = %106
  br label %111

111:                                              ; preds = %110
  store i8 1, ptr %9, align 1, !tbaa !23
  %112 = load i8, ptr %9, align 1, !tbaa !23, !range !25, !noundef !26
  %113 = trunc i8 %112 to i1
  %114 = zext i1 %113 to i8
  store i8 %114, ptr %9, align 1, !tbaa !23
  br label %115

115:                                              ; preds = %111
  br label %116

116:                                              ; preds = %115
  br label %117

117:                                              ; preds = %116
  store i32 -1, ptr %8, align 4, !tbaa !10
  store i32 10, ptr %11, align 4
  br label %130

118:                                              ; No predecessors!
  br label %119

119:                                              ; preds = %118
  br label %120

120:                                              ; preds = %119
  br label %121

121:                                              ; preds = %120
  br label %122

122:                                              ; preds = %121, %90
  br label %123

123:                                              ; preds = %122
  %124 = load i64, ptr %10, align 8, !tbaa !14
  %125 = add i64 %124, 1
  store i64 %125, ptr %10, align 8, !tbaa !14
  %126 = load i64, ptr %7, align 8, !tbaa !14
  store i64 %126, ptr %6, align 8, !tbaa !14
  br label %84, !llvm.loop !69

127:                                              ; preds = %84
  %128 = load i64, ptr %6, align 8, !tbaa !14
  %129 = load ptr, ptr %5, align 8, !tbaa !67
  store i64 %128, ptr %129, align 8, !tbaa !14
  store i32 0, ptr %11, align 4
  br label %130

130:                                              ; preds = %117, %127
  call void @llvm.lifetime.end.p0(i64 8, ptr %10) #8
  %131 = load i32, ptr %11, align 4
  switch i32 %131, label %137 [
    i32 0, label %132
    i32 10, label %134
  ]

132:                                              ; preds = %130
  br label %133

133:                                              ; preds = %132, %81
  br label %134

134:                                              ; preds = %133, %130, %43
  br label %135

135:                                              ; preds = %134, %56
  %136 = load i32, ptr %8, align 4, !tbaa !10
  store i32 %136, ptr %3, align 4
  store i32 1, ptr %11, align 4
  br label %137

137:                                              ; preds = %135, %130
  call void @llvm.lifetime.end.p0(i64 1, ptr %9) #8
  call void @llvm.lifetime.end.p0(i64 4, ptr %8) #8
  call void @llvm.lifetime.end.p0(i64 8, ptr %7) #8
  call void @llvm.lifetime.end.p0(i64 8, ptr %6) #8
  %138 = load i32, ptr %3, align 4
  ret i32 %138
}