; Function Attrs: nounwind uwtable
define range(i32 -1, 1) i32 @H5O_efl_total_size(ptr noundef readonly captures(none) %0, ptr noundef writeonly captures(none) %1) local_unnamed_addr #0 {
  %3 = load i8, ptr @H5O_init_g, align 1, !tbaa !8, !range !10, !noundef !11
  %4 = trunc nuw i8 %3 to i1
  %5 = load i8, ptr @H5_libterm_g, align 1, !range !10
  %6 = trunc nuw i8 %5 to i1
  %7 = select i1 %4, i1 true, i1 %6
  br i1 %7, label %15, label %8, !prof !12

8:                                                ; preds = %2
  store i8 1, ptr @H5O_init_g, align 1, !tbaa !8
  %9 = tail call i32 @H5O__init_package() #11
  %10 = icmp slt i32 %9, 0
  br i1 %10, label %11, label %._crit_edge30

._crit_edge30:                                    ; preds = %8
  %.pre = load i8, ptr @H5O_init_g, align 1, !tbaa !8, !range !10
  %.pre31 = load i8, ptr @H5_libterm_g, align 1, !range !10
  %.pre32 = trunc nuw i8 %.pre to i1
  %.pre33 = trunc nuw i8 %.pre31 to i1
  br label %15

11:                                               ; preds = %8
  store i8 0, ptr @H5O_init_g, align 1, !tbaa !8
  %12 = load i64, ptr @H5E_FUNC_g, align 8, !tbaa !13
  %13 = load i64, ptr @H5E_CANTINIT_g, align 8, !tbaa !13
  %14 = tail call i32 (ptr, ptr, i32, i64, i64, ptr, ...) @H5E_printf_stack(ptr noundef nonnull @.str.1, ptr noundef nonnull @__func__.H5O_efl_total_size, i32 noundef 406, i64 noundef %12, i64 noundef %13, ptr noundef nonnull @.str.2) #11
  br label %42

15:                                               ; preds = %._crit_edge30, %2
  %.pre-phi34 = phi i1 [ %.pre33, %._crit_edge30 ], [ %6, %2 ]
  %.pre-phi = phi i1 [ %.pre32, %._crit_edge30 ], [ %4, %2 ]
  %16 = xor i1 %.pre-phi34, true
  %17 = select i1 %.pre-phi, i1 true, i1 %16
  br i1 %17, label %18, label %42, !prof !12

18:                                               ; preds = %15
  %19 = getelementptr inbounds nuw i8, ptr %0, i64 16
  %20 = load i64, ptr %19, align 8, !tbaa !19
  %.not = icmp eq i64 %20, 0
  br i1 %.not, label %._crit_edge, label %21

21:                                               ; preds = %18
  %22 = getelementptr inbounds nuw i8, ptr %0, i64 24
  %23 = load ptr, ptr %22, align 8, !tbaa !21
  %24 = getelementptr %struct.H5O_efl_entry_t, ptr %23, i64 %20
  %25 = getelementptr i8, ptr %24, i64 -8
  %26 = load i64, ptr %25, align 8, !tbaa !29
  %27 = icmp eq i64 %26, -1
  br i1 %27, label %28, label %.lr.ph

28:                                               ; preds = %21
  store i64 -1, ptr %1, align 8, !tbaa !13
  br label %42

.lr.ph:                                           ; preds = %21
  %29 = getelementptr inbounds nuw i8, ptr %0, i64 24
  %30 = load ptr, ptr %29, align 8, !tbaa !21
  br label %33

31:                                               ; preds = %33
  %32 = add nuw i64 %.01927, 1
  %exitcond.not = icmp eq i64 %32, %20
  br i1 %exitcond.not, label %._crit_edge, label %33, !llvm.loop !46

33:                                               ; preds = %.lr.ph, %31
  %.01927 = phi i64 [ 0, %.lr.ph ], [ %32, %31 ]
  %.02226 = phi i64 [ 0, %.lr.ph ], [ %36, %31 ]
  %34 = getelementptr inbounds nuw %struct.H5O_efl_entry_t, ptr %30, i64 %.01927, i32 3
  %35 = load i64, ptr %34, align 8, !tbaa !29
  %36 = add i64 %35, %.02226
  %37 = icmp ult i64 %36, %.02226
  br i1 %37, label %38, label %31

38:                                               ; preds = %33
  %39 = load i64, ptr @H5E_EFL_g, align 8, !tbaa !13
  %40 = load i64, ptr @H5E_OVERFLOW_g, align 8, !tbaa !13
  %41 = tail call i32 (ptr, ptr, i32, i64, i64, ptr, ...) @H5E_printf_stack(ptr noundef nonnull @.str.1, ptr noundef nonnull @__func__.H5O_efl_total_size, i32 noundef 416, i64 noundef %39, i64 noundef %40, ptr noundef nonnull @.str.3) #11
  br label %42

._crit_edge:                                      ; preds = %31, %18
  %.022.lcssa = phi i64 [ 0, %18 ], [ %36, %31 ]
  store i64 %.022.lcssa, ptr %1, align 8, !tbaa !13
  br label %42

42:                                               ; preds = %38, %._crit_edge, %15, %28, %11
  %.021 = phi i32 [ -1, %11 ], [ 0, %28 ], [ 0, %15 ], [ -1, %38 ], [ 0, %._crit_edge ]
  ret i32 %.021
}